target datalayout = "e-m:e-p270:32:32-p271:32:32-p272:64:64-i64:64-i128:128-f80:128-n8:16:32:64-S128"
target triple = "x86_64-pc-linux-gnu"

%struct.AVRational = type { i32, i32 }
%struct.InputStream = type { ptr, ptr, i32, ptr, i32, ptr, ptr, ptr, %struct.AVRational, i32, i32, ptr, i32 }
%struct.AVCodecParameters = type { i32, i32, i32, ptr, i32, ptr, i32, i32, i64, i32, i32, i32, i32, i32, i32, %struct.AVRational, %struct.AVRational, i32, i32, i32, i32, i32, i32, i32, %struct.AVChannelLayout, i32, i32, i32, i32, i32, i32 }
%struct.AVChannelLayout = type { i32, i32, %union.anon, ptr }
%union.anon = type { i64 }
%struct.DemuxStream = type { %struct.InputStream, [32 x i8], i32, i32, double, i32, i32, i32, i32, i32, i32, i32, i32, i32, i32, i32, i64, i64, i64, ptr, ptr, %struct.DecoderOpts, [16 x i8], ptr, ptr, i64, i64, i64, i64, i64 }
%struct.DecoderOpts = type { i32, ptr, ptr, ptr, ptr, i32, i32, ptr, i32, %struct.AVRational, %struct.AVRational }

; Function Attrs: nounwind uwtable
define internal ptr @ds_from_ist(ptr noundef %0) #0 {
  %2 = alloca ptr, align 8
  store ptr %0, ptr %2, align 8, !tbaa !8
  %3 = load ptr, ptr %2, align 8, !tbaa !8
  ret ptr %3
}

; Function Attrs: nounwind uwtable
define ptr @ist_find_unused(i32 noundef %0) #0 {
  %2 = alloca ptr, align 8
  %3 = alloca i32, align 4
  %4 = alloca ptr, align 8
  %5 = alloca i32, align 4
  %6 = alloca ptr, align 8
  store i32 %0, ptr %3, align 4, !tbaa !4
  call void @llvm.lifetime.start.p0(i64 8, ptr %4) #12
  %7 = call ptr @ist_iter(ptr noundef null)
  store ptr %7, ptr %4, align 8, !tbaa !8
  br label %8

8:                                                ; preds = %38, %1
  %9 = load ptr, ptr %4, align 8, !tbaa !8
  %10 = icmp ne ptr %9, null
  br i1 %10, label %12, label %11

11:                                               ; preds = %8
  store i32 2, ptr %5, align 4
  br label %41

12:                                               ; preds = %8
  call void @llvm.lifetime.start.p0(i64 8, ptr %6) #12
  %13 = load ptr, ptr %4, align 8, !tbaa !8
  %14 = call ptr @ds_from_ist(ptr noundef %13)
  store ptr %14, ptr %6, align 8, !tbaa !11
  %15 = load ptr, ptr %4, align 8, !tbaa !8
  %16 = getelementptr inbounds nuw %struct.InputStream, ptr %15, i32 0, i32 5
  %17 = load ptr, ptr %16, align 8, !tbaa !13
  %18 = getelementptr inbounds nuw %struct.AVCodecParameters, ptr %17, i32 0, i32 0
  %19 = load i32, ptr %18, align 8, !tbaa !24
  %20 = load i32, ptr %3, align 4, !tbaa !4
  %21 = icmp eq i32 %19, %20
  br i1 %21, label %22, label %34

22:                                               ; preds = %12
  %23 = load ptr, ptr %6, align 8, !tbaa !11
  %24 = getelementptr inbounds nuw %struct.DemuxStream, ptr %23, i32 0, i32 6
  %25 = load i32, ptr %24, align 4, !tbaa !30
  %26 = icmp ne i32 %25, 0
  br i1 %26, label %27, label %34

27:                                               ; preds = %22
  %28 = load ptr, ptr %4, align 8, !tbaa !8
  %29 = getelementptr inbounds nuw %struct.InputStream, ptr %28, i32 0, i32 4
  %30 = load i32, ptr %29, align 8, !tbaa !38
  %31 = icmp ne i32 %30, 48
  br i1 %31, label %32, label %34

32:                                               ; preds = %27
  %33 = load ptr, ptr %4, align 8, !tbaa !8
  store ptr %33, ptr %2, align 8
  store i32 1, ptr %5, align 4
  br label %35

34:                                               ; preds = %27, %22, %12
  store i32 0, ptr %5, align 4
  br label %35

35:                                               ; preds = %34, %32
  call void @llvm.lifetime.end.p0(i64 8, ptr %6) #12
  %36 = load i32, ptr %5, align 4
  switch i32 %36, label %41 [
    i32 0, label %37
  ]

37:                                               ; preds = %35
  br label %38

38:                                               ; preds = %37
  %39 = load ptr, ptr %4, align 8, !tbaa !8
  %40 = call ptr @ist_iter(ptr noundef %39)
  store ptr %40, ptr %4, align 8, !tbaa !8
  br label %8, !llvm.loop !39

41:                                               ; preds = %35, %11
  call void @llvm.lifetime.end.p0(i64 8, ptr %4) #12
  %42 = load i32, ptr %5, align 4
  switch i32 %42, label %46 [
    i32 2, label %43
    i32 1, label %44
  ]

43:                                               ; preds = %41
  store ptr null, ptr %2, align 8
  br label %44

44:                                               ; preds = %43, %41
  %45 = load ptr, ptr %2, align 8
  ret ptr %45

46:                                               ; preds = %41
  unreachable
}