; Function Attrs: nounwind uwtable
define ptr @ist_find_unused(i32 noundef %0) local_unnamed_addr #0 {
  %2 = tail call ptr @ist_iter(ptr noundef null) #14
  %.not18 = icmp eq ptr %2, null
  br i1 %.not18, label %._crit_edge, label %.lr.ph

.lr.ph:                                           ; preds = %1, %13
  %.01219 = phi ptr [ %14, %13 ], [ %2, %1 ]
  %3 = getelementptr inbounds nuw i8, ptr %.01219, i64 40
  %4 = load ptr, ptr %3, align 8, !tbaa !4
  %5 = load i32, ptr %4, align 8, !tbaa !19
  %6 = icmp eq i32 %5, %0
  br i1 %6, label %7, label %13

7:                                                ; preds = %.lr.ph
  %8 = getelementptr inbounds nuw i8, ptr %.01219, i64 148
  %9 = load i32, ptr %8, align 4, !tbaa !25
  %.not13 = icmp eq i32 %9, 0
  br i1 %.not13, label %13, label %10

10:                                               ; preds = %7
  %11 = getelementptr inbounds nuw i8, ptr %.01219, i64 32
  %12 = load i32, ptr %11, align 8, !tbaa !33
  %.not14 = icmp eq i32 %12, 48
  br i1 %.not14, label %13, label %._crit_edge

13:                                               ; preds = %.lr.ph, %7, %10
  %14 = tail call ptr @ist_iter(ptr noundef nonnull %.01219) #14
  %.not = icmp eq ptr %14, null
  br i1 %.not, label %._crit_edge, label %.lr.ph, !llvm.loop !34

._crit_edge:                                      ; preds = %13, %10, %1
  %.012.lcssa = phi ptr [ null, %1 ], [ %.01219, %10 ], [ null, %13 ]
  ret ptr %.012.lcssa
}